target datalayout = "e-m:e-p270:32:32-p271:32:32-p272:64:64-i64:64-i128:128-f80:128-n8:16:32:64-S128"
target triple = "x86_64-pc-linux-gnu"

%struct.net_forward_msg_t = type { i32, i32, i16, ptr }

@.str.2 = private unnamed_addr constant [22 x i8] c"slurm_protocol_pack.c\00", align 1
@__func__._unpack_net_forward_msg = private unnamed_addr constant [24 x i8] c"_unpack_net_forward_msg\00", align 1

; Function Attrs: nounwind uwtable
define internal i32 @_unpack_net_forward_msg(ptr noundef %0, ptr noundef %1, i16 noundef zeroext %2) #0 {
  %4 = alloca i32, align 4
  %5 = alloca ptr, align 8
  %6 = alloca ptr, align 8
  %7 = alloca i16, align 2
  %8 = alloca ptr, align 8
  %9 = alloca i32, align 4
  %10 = alloca i32, align 4
  store ptr %0, ptr %5, align 8
  store ptr %1, ptr %6, align 8
  store i16 %2, ptr %7, align 2
  call void @llvm.lifetime.start.p0(i64 8, ptr %8) #6
  %11 = call ptr @slurm_xcalloc(i64 noundef 1, i64 noundef 24, i1 noundef zeroext true, i1 noundef zeroext false, ptr noundef @.str.2, i32 noundef 10381, ptr noundef @__func__._unpack_net_forward_msg)
  store ptr %11, ptr %8, align 8
  %12 = load ptr, ptr %8, align 8
  %13 = load ptr, ptr %5, align 8
  store ptr %12, ptr %13, align 8
  %14 = load i16, ptr %7, align 2
  %15 = zext i16 %14 to i32
  %16 = icmp sge i32 %15, 10240
  br i1 %16, label %17, label %61

17:                                               ; preds = %3
  br label %18

18:                                               ; preds = %17
  %19 = load ptr, ptr %8, align 8
  %20 = getelementptr inbounds nuw %struct.net_forward_msg_t, ptr %19, i32 0, i32 0
  %21 = load ptr, ptr %6, align 8
  %22 = call i32 @unpack32(ptr noundef %20, ptr noundef %21)
  %23 = icmp ne i32 %22, 0
  br i1 %23, label %24, label %25

24:                                               ; preds = %18
  br label %62

25:                                               ; preds = %18
  br label %26

26:                                               ; preds = %25
  br label %27

27:                                               ; preds = %26
  br label %28

28:                                               ; preds = %27
  %29 = load ptr, ptr %8, align 8
  %30 = getelementptr inbounds nuw %struct.net_forward_msg_t, ptr %29, i32 0, i32 1
  %31 = load ptr, ptr %6, align 8
  %32 = call i32 @unpack32(ptr noundef %30, ptr noundef %31)
  %33 = icmp ne i32 %32, 0
  br i1 %33, label %34, label %35

34:                                               ; preds = %28
  br label %62

35:                                               ; preds = %28
  br label %36

36:                                               ; preds = %35
  br label %37

37:                                               ; preds = %36
  br label %38

38:                                               ; preds = %37
  %39 = load ptr, ptr %8, align 8
  %40 = getelementptr inbounds nuw %struct.net_forward_msg_t, ptr %39, i32 0, i32 2
  %41 = load ptr, ptr %6, align 8
  %42 = call i32 @unpack16(ptr noundef %40, ptr noundef %41)
  %43 = icmp ne i32 %42, 0
  br i1 %43, label %44, label %45

44:                                               ; preds = %38
  br label %62

45:                                               ; preds = %38
  br label %46

46:                                               ; preds = %45
  br label %47

47:                                               ; preds = %46
  br label %48

48:                                               ; preds = %47
  call void @llvm.lifetime.start.p0(i64 4, ptr %9) #6
  %49 = load ptr, ptr %8, align 8
  %50 = getelementptr inbounds nuw %struct.net_forward_msg_t, ptr %49, i32 0, i32 3
  %51 = load ptr, ptr %6, align 8
  %52 = call i32 @unpackstr_xmalloc_chooser(ptr noundef %50, ptr noundef %9, ptr noundef %51)
  %53 = icmp ne i32 %52, 0
  br i1 %53, label %54, label %55

54:                                               ; preds = %48
  store i32 4, ptr %10, align 4
  br label %56

55:                                               ; preds = %48
  store i32 0, ptr %10, align 4
  br label %56

56:                                               ; preds = %54, %55
  call void @llvm.lifetime.end.p0(i64 4, ptr %9) #6
  %57 = load i32, ptr %10, align 4
  switch i32 %57, label %65 [
    i32 0, label %58
    i32 4, label %62
  ]

58:                                               ; preds = %56
  br label %59

59:                                               ; preds = %58
  br label %60

60:                                               ; preds = %59
  br label %61

61:                                               ; preds = %60, %3
  store i32 0, ptr %4, align 4
  store i32 1, ptr %10, align 4
  br label %65

62:                                               ; preds = %56, %44, %34, %24
  %63 = load ptr, ptr %8, align 8
  call void @slurm_free_net_forward_msg(ptr noundef %63)
  %64 = load ptr, ptr %5, align 8
  store ptr null, ptr %64, align 8
  store i32 -1, ptr %4, align 4
  store i32 1, ptr %10, align 4
  br label %65

65:                                               ; preds = %62, %61, %56
  call void @llvm.lifetime.end.p0(i64 8, ptr %8) #6
  %66 = load i32, ptr %4, align 4
  ret i32 %66
}