; Function Attrs: nounwind uwtable
define internal fastcc range(i32 -1, 1) i32 @_unpack_net_forward_msg(ptr noundef writeonly captures(none) initializes((0, 8)) %0, ptr noundef %1, i16 noundef zeroext %2) unnamed_addr #0 {
  %4 = alloca i32, align 4
  %5 = tail call ptr @slurm_xcalloc(i64 noundef 1, i64 noundef 24, i1 noundef zeroext true, i1 noundef zeroext false, ptr noundef nonnull @.str.2, i32 noundef 10381, ptr noundef nonnull @__func__._unpack_net_forward_msg) #7
  store ptr %5, ptr %0, align 8
  %6 = icmp ugt i16 %2, 10239
  br i1 %6, label %7, label %19

7:                                                ; preds = %3
  %8 = tail call i32 @unpack32(ptr noundef %5, ptr noundef %1) #7
  %.not = icmp eq i32 %8, 0
  br i1 %.not, label %9, label %18

9:                                                ; preds = %7
  %10 = getelementptr inbounds nuw i8, ptr %5, i64 4
  %11 = tail call i32 @unpack32(ptr noundef nonnull %10, ptr noundef %1) #7
  %.not15 = icmp eq i32 %11, 0
  br i1 %.not15, label %12, label %18

12:                                               ; preds = %9
  %13 = getelementptr inbounds nuw i8, ptr %5, i64 8
  %14 = tail call i32 @unpack16(ptr noundef nonnull %13, ptr noundef %1) #7
  %.not16 = icmp eq i32 %14, 0
  br i1 %.not16, label %15, label %18

15:                                               ; preds = %12
  call void @llvm.lifetime.start.p0(i64 4, ptr nonnull %4) #7
  %16 = getelementptr inbounds nuw i8, ptr %5, i64 16
  %17 = call i32 @unpackstr_xmalloc_chooser(ptr noundef nonnull %16, ptr noundef nonnull %4, ptr noundef %1) #7
  %.not17 = icmp eq i32 %17, 0
  call void @llvm.lifetime.end.p0(i64 4, ptr nonnull %4) #7
  br i1 %.not17, label %19, label %18

18:                                               ; preds = %15, %12, %9, %7
  call void @slurm_free_net_forward_msg(ptr noundef %5) #7
  store ptr null, ptr %0, align 8
  br label %19

19:                                               ; preds = %15, %3, %18
  %.014 = phi i32 [ -1, %18 ], [ 0, %15 ], [ 0, %3 ]
  ret i32 %.014
}